target datalayout = "e-m:e-p270:32:32-p271:32:32-p272:64:64-i64:64-i128:128-f80:128-n8:16:32:64-S128"
target triple = "x86_64-pc-linux-gnu"

%struct.mi_commit_mask_s = type { [16 x i64] }
%struct.mi_page_s = type { i32, i32, i8, i16, i16, %union.mi_page_flags_s, i8, ptr, i32, i32, ptr, i64, i64, ptr, ptr, [1 x i64] }
%union.mi_page_flags_s = type { i8 }
%struct.mi_segment_s = type { i64, i8, i8, i8, i8, i64, %struct.mi_commit_mask_s, %struct.mi_commit_mask_s, ptr, ptr, i64, i64, i64, i64, i64, i64, i32, i64, i64, [1024 x %struct.mi_page_s] }

@abandoned_readers = internal global i64 0, align 64
@abandoned = internal global i64 0, align 64
@abandoned_count = internal global i64 0, align 64
@abandoned_visited = internal global ptr null, align 64
@abandoned_visited_count = internal global i64 0, align 64

; Function Attrs: nounwind uwtable
define internal i64 @mi_tagged_segment(ptr noundef %0, i64 noundef %1) #0 {
  %3 = alloca ptr, align 8
  %4 = alloca i64, align 8
  %5 = alloca i64, align 8
  store ptr %0, ptr %3, align 8, !tbaa !19
  store i64 %1, ptr %4, align 8, !tbaa !8
  call void @llvm.lifetime.start.p0(i64 8, ptr %5) #7
  %6 = load i64, ptr %4, align 8, !tbaa !8
  %7 = and i64 %6, 67108863
  %8 = add i64 %7, 1
  %9 = and i64 %8, 67108863
  store i64 %9, ptr %5, align 8, !tbaa !8
  %10 = load ptr, ptr %3, align 8, !tbaa !19
  %11 = ptrtoint ptr %10 to i64
  %12 = load i64, ptr %5, align 8, !tbaa !8
  %13 = or i64 %11, %12
  call void @llvm.lifetime.end.p0(i64 8, ptr %5) #7
  ret i64 %13
}

; Function Attrs: nounwind uwtable
define internal zeroext i1 @mi_abandoned_visited_revisit() #0 {
  %1 = alloca i1, align 1
  %2 = alloca ptr, align 8
  %3 = alloca ptr, align 8
  %4 = alloca ptr, align 8
  %5 = alloca ptr, align 8
  %6 = alloca i32, align 4
  %7 = alloca i64, align 8
  %8 = alloca i64, align 8
  %9 = alloca i64, align 8
  %10 = alloca i64, align 8
  %11 = alloca i64, align 8
  %12 = alloca i64, align 8
  %13 = alloca i8, align 1
  %14 = alloca i64, align 8
  %15 = alloca i64, align 8
  %16 = alloca i64, align 8
  %17 = alloca i64, align 8
  %18 = alloca ptr, align 8
  %19 = alloca ptr, align 8
  %20 = alloca ptr, align 8
  %21 = alloca i64, align 8
  %22 = alloca i64, align 8
  %23 = alloca i64, align 8
  %24 = alloca i64, align 8
  %25 = alloca ptr, align 8
  %26 = alloca i64, align 8
  %27 = alloca i8, align 1
  %28 = alloca i64, align 8
  %29 = alloca i64, align 8
  %30 = alloca i64, align 8
  %31 = alloca i64, align 8
  %32 = load atomic i64, ptr @abandoned_visited monotonic, align 64
  store i64 %32, ptr %2, align 8
  %33 = load ptr, ptr %2, align 8, !tbaa !19
  %34 = icmp eq ptr %33, null
  br i1 %34, label %35, label %36

35:                                               ; preds = %0
  store i1 false, ptr %1, align 1
  br label %123

36:                                               ; preds = %0
  call void @llvm.lifetime.start.p0(i64 8, ptr %3) #7
  store ptr null, ptr %4, align 8, !tbaa !19
  %37 = load i64, ptr %4, align 8
  %38 = atomicrmw xchg ptr @abandoned_visited, i64 %37 acq_rel, align 64
  store i64 %38, ptr %5, align 8
  %39 = load ptr, ptr %5, align 8, !tbaa !19
  store ptr %39, ptr %3, align 8, !tbaa !19
  %40 = load ptr, ptr %3, align 8, !tbaa !19
  %41 = icmp eq ptr %40, null
  br i1 %41, label %42, label %43

42:                                               ; preds = %36
  store i1 false, ptr %1, align 1
  store i32 1, ptr %6, align 4
  br label %122

43:                                               ; preds = %36
  call void @llvm.lifetime.start.p0(i64 8, ptr %7) #7
  call void @llvm.lifetime.start.p0(i64 8, ptr %8) #7
  %44 = load atomic i64, ptr @abandoned monotonic, align 64
  store i64 %44, ptr %9, align 8
  %45 = load i64, ptr %9, align 8, !tbaa !8
  store i64 %45, ptr %8, align 8, !tbaa !8
  %46 = load i64, ptr %8, align 8, !tbaa !8
  %47 = call ptr @mi_tagged_segment_ptr(i64 noundef %46)
  %48 = icmp eq ptr %47, null
  br i1 %48, label %49, label %77

49:                                               ; preds = %43
  call void @llvm.lifetime.start.p0(i64 8, ptr %10) #7
  %50 = load atomic i64, ptr @abandoned_visited_count monotonic, align 64
  store i64 %50, ptr %11, align 8
  %51 = load i64, ptr %11, align 8, !tbaa !8
  store i64 %51, ptr %10, align 8, !tbaa !8
  %52 = load ptr, ptr %3, align 8, !tbaa !19
  %53 = load i64, ptr %8, align 8, !tbaa !8
  %54 = call i64 @mi_tagged_segment(ptr noundef %52, i64 noundef %53)
  store i64 %54, ptr %7, align 8, !tbaa !8
  %55 = load i64, ptr %7, align 8, !tbaa !8
  store i64 %55, ptr %12, align 8, !tbaa !8
  %56 = load i64, ptr %8, align 8
  %57 = load i64, ptr %12, align 8
  %58 = cmpxchg ptr @abandoned, i64 %56, i64 %57 acq_rel acquire, align 64
  %59 = extractvalue { i64, i1 } %58, 0
  %60 = extractvalue { i64, i1 } %58, 1
  br i1 %60, label %62, label %61

61:                                               ; preds = %49
  store i64 %59, ptr %8, align 8
  br label %62

62:                                               ; preds = %61, %49
  %63 = zext i1 %60 to i8
  store i8 %63, ptr %13, align 1, !tbaa !33
  %64 = load i8, ptr %13, align 1, !tbaa !33, !range !38, !noundef !39
  %65 = trunc i8 %64 to i1
  br i1 %65, label %66, label %73

66:                                               ; preds = %62
  %67 = load i64, ptr %10, align 8, !tbaa !8
  store i64 %67, ptr %14, align 8, !tbaa !8
  %68 = load i64, ptr %14, align 8
  %69 = atomicrmw add ptr @abandoned_count, i64 %68 monotonic, align 64
  store i64 %69, ptr %15, align 8
  %70 = load i64, ptr %10, align 8, !tbaa !8
  store i64 %70, ptr %16, align 8, !tbaa !8
  %71 = load i64, ptr %16, align 8
  %72 = atomicrmw sub ptr @abandoned_visited_count, i64 %71 monotonic, align 64
  store i64 %72, ptr %17, align 8
  store i1 true, ptr %1, align 1
  store i32 1, ptr %6, align 4
  br label %74

73:                                               ; preds = %62
  store i32 0, ptr %6, align 4
  br label %74

74:                                               ; preds = %73, %66
  call void @llvm.lifetime.end.p0(i64 8, ptr %10) #7
  %75 = load i32, ptr %6, align 4
  switch i32 %75, label %121 [
    i32 0, label %76
  ]

76:                                               ; preds = %74
  br label %77

77:                                               ; preds = %76, %43
  call void @llvm.lifetime.start.p0(i64 8, ptr %18) #7
  %78 = load ptr, ptr %3, align 8, !tbaa !19
  store ptr %78, ptr %18, align 8, !tbaa !19
  call void @llvm.lifetime.start.p0(i64 8, ptr %19) #7
  br label %79

79:                                               ; preds = %85, %77
  %80 = load ptr, ptr %18, align 8, !tbaa !19
  %81 = getelementptr inbounds nuw %struct.mi_segment_s, ptr %80, i32 0, i32 8
  %82 = load atomic i64, ptr %81 monotonic, align 8
  store i64 %82, ptr %20, align 8
  %83 = load ptr, ptr %20, align 8, !tbaa !19
  store ptr %83, ptr %19, align 8, !tbaa !19
  %84 = icmp ne ptr %83, null
  br i1 %84, label %85, label %87

85:                                               ; preds = %79
  %86 = load ptr, ptr %19, align 8, !tbaa !19
  store ptr %86, ptr %18, align 8, !tbaa !19
  br label %79, !llvm.loop !62

87:                                               ; preds = %79
  call void @llvm.lifetime.start.p0(i64 8, ptr %21) #7
  %88 = load atomic i64, ptr @abandoned monotonic, align 64
  store i64 %88, ptr %22, align 8
  %89 = load i64, ptr %22, align 8, !tbaa !8
  store i64 %89, ptr %21, align 8, !tbaa !8
  call void @llvm.lifetime.start.p0(i64 8, ptr %23) #7
  br label %90

90:                                               ; preds = %109, %87
  %91 = load atomic i64, ptr @abandoned_visited_count monotonic, align 64
  store i64 %91, ptr %24, align 8
  %92 = load i64, ptr %24, align 8, !tbaa !8
  store i64 %92, ptr %23, align 8, !tbaa !8
  %93 = load ptr, ptr %18, align 8, !tbaa !19
  %94 = getelementptr inbounds nuw %struct.mi_segment_s, ptr %93, i32 0, i32 8
  %95 = load i64, ptr %21, align 8, !tbaa !8
  %96 = call ptr @mi_tagged_segment_ptr(i64 noundef %95)
  store ptr %96, ptr %25, align 8, !tbaa !19
  %97 = load i64, ptr %25, align 8
  store atomic i64 %97, ptr %94 release, align 8
  %98 = load ptr, ptr %3, align 8, !tbaa !19
  %99 = load i64, ptr %21, align 8, !tbaa !8
  %100 = call i64 @mi_tagged_segment(ptr noundef %98, i64 noundef %99)
  store i64 %100, ptr %7, align 8, !tbaa !8
  br label %101

101:                                              ; preds = %90
  %102 = load i64, ptr %7, align 8, !tbaa !8
  store i64 %102, ptr %26, align 8, !tbaa !8
  %103 = load i64, ptr %21, align 8
  %104 = load i64, ptr %26, align 8
  %105 = cmpxchg weak ptr @abandoned, i64 %103, i64 %104 release monotonic, align 64
  %106 = extractvalue { i64, i1 } %105, 0
  %107 = extractvalue { i64, i1 } %105, 1
  br i1 %107, label %109, label %108

108:                                              ; preds = %101
  store i64 %106, ptr %21, align 8
  br label %109

109:                                              ; preds = %108, %101
  %110 = zext i1 %107 to i8
  store i8 %110, ptr %27, align 1, !tbaa !33
  %111 = load i8, ptr %27, align 1, !tbaa !33, !range !38, !noundef !39
  %112 = trunc i8 %111 to i1
  %113 = xor i1 %112, true
  br i1 %113, label %90, label %114, !llvm.loop !63

114:                                              ; preds = %109
  %115 = load i64, ptr %23, align 8, !tbaa !8
  store i64 %115, ptr %28, align 8, !tbaa !8
  %116 = load i64, ptr %28, align 8
  %117 = atomicrmw add ptr @abandoned_count, i64 %116 monotonic, align 64
  store i64 %117, ptr %29, align 8
  %118 = load i64, ptr %23, align 8, !tbaa !8
  store i64 %118, ptr %30, align 8, !tbaa !8
  %119 = load i64, ptr %30, align 8
  %120 = atomicrmw sub ptr @abandoned_visited_count, i64 %119 monotonic, align 64
  store i64 %120, ptr %31, align 8
  store i1 true, ptr %1, align 1
  store i32 1, ptr %6, align 4
  call void @llvm.lifetime.end.p0(i64 8, ptr %23) #7
  call void @llvm.lifetime.end.p0(i64 8, ptr %21) #7
  call void @llvm.lifetime.end.p0(i64 8, ptr %19) #7
  call void @llvm.lifetime.end.p0(i64 8, ptr %18) #7
  br label %121

121:                                              ; preds = %114, %74
  call void @llvm.lifetime.end.p0(i64 8, ptr %8) #7
  call void @llvm.lifetime.end.p0(i64 8, ptr %7) #7
  br label %122

122:                                              ; preds = %121, %42
  call void @llvm.lifetime.end.p0(i64 8, ptr %3) #7
  br label %123

123:                                              ; preds = %122, %35
  %124 = load i1, ptr %1, align 1
  ret i1 %124
}

; Function Attrs: nounwind uwtable
define internal ptr @mi_tagged_segment_ptr(i64 noundef %0) #0 {
  %2 = alloca i64, align 8
  store i64 %0, ptr %2, align 8, !tbaa !8
  %3 = load i64, ptr %2, align 8, !tbaa !8
  %4 = and i64 %3, -67108864
  %5 = inttoptr i64 %4 to ptr
  ret ptr %5
}

; Function Attrs: nounwind uwtable
define internal ptr @mi_abandoned_pop() #0 {
  %1 = alloca ptr, align 8
  %2 = alloca ptr, align 8
  %3 = alloca i64, align 8
  %4 = alloca i64, align 8
  %5 = alloca i32, align 4
  %6 = alloca i64, align 8
  %7 = alloca i64, align 8
  %8 = alloca i64, align 8
  %9 = alloca i64, align 8
  %10 = alloca ptr, align 8
  %11 = alloca ptr, align 8
  %12 = alloca i64, align 8
  %13 = alloca i8, align 1
  %14 = alloca i64, align 8
  %15 = alloca i64, align 8
  %16 = alloca ptr, align 8
  %17 = alloca i64, align 8
  %18 = alloca i64, align 8
  call void @llvm.lifetime.start.p0(i64 8, ptr %2) #7
  call void @llvm.lifetime.start.p0(i64 8, ptr %3) #7
  %19 = load atomic i64, ptr @abandoned monotonic, align 64
  store i64 %19, ptr %4, align 8
  %20 = load i64, ptr %4, align 8, !tbaa !8
  store i64 %20, ptr %3, align 8, !tbaa !8
  %21 = load i64, ptr %3, align 8, !tbaa !8
  %22 = call ptr @mi_tagged_segment_ptr(i64 noundef %21)
  store ptr %22, ptr %2, align 8, !tbaa !19
  %23 = load ptr, ptr %2, align 8, !tbaa !19
  %24 = icmp eq ptr %23, null
  %25 = xor i1 %24, true
  %26 = xor i1 %25, true
  %27 = zext i1 %26 to i32
  %28 = sext i32 %27 to i64
  %29 = call i64 @llvm.expect.i64(i64 %28, i64 1)
  %30 = icmp ne i64 %29, 0
  br i1 %30, label %31, label %42

31:                                               ; preds = %0
  %32 = call zeroext i1 @mi_abandoned_visited_revisit()
  %33 = xor i1 %32, true
  %34 = xor i1 %33, true
  %35 = xor i1 %34, true
  %36 = zext i1 %35 to i32
  %37 = sext i32 %36 to i64
  %38 = call i64 @llvm.expect.i64(i64 %37, i64 1)
  %39 = icmp ne i64 %38, 0
  br i1 %39, label %40, label %41

40:                                               ; preds = %31
  store ptr null, ptr %1, align 8
  store i32 1, ptr %5, align 4
  br label %92

41:                                               ; preds = %31
  br label %42

42:                                               ; preds = %41, %0
  store i64 1, ptr %6, align 8, !tbaa !8
  %43 = load i64, ptr %6, align 8
  %44 = atomicrmw add ptr @abandoned_readers, i64 %43 monotonic, align 64
  store i64 %44, ptr %7, align 8
  call void @llvm.lifetime.start.p0(i64 8, ptr %8) #7
  store i64 0, ptr %8, align 8, !tbaa !8
  %45 = load atomic i64, ptr @abandoned acquire, align 64
  store i64 %45, ptr %9, align 8
  %46 = load i64, ptr %9, align 8, !tbaa !8
  store i64 %46, ptr %3, align 8, !tbaa !8
  br label %47

47:                                               ; preds = %77, %42
  %48 = load i64, ptr %3, align 8, !tbaa !8
  %49 = call ptr @mi_tagged_segment_ptr(i64 noundef %48)
  store ptr %49, ptr %2, align 8, !tbaa !19
  %50 = load ptr, ptr %2, align 8, !tbaa !19
  %51 = icmp ne ptr %50, null
  br i1 %51, label %52, label %60

52:                                               ; preds = %47
  call void @llvm.lifetime.start.p0(i64 8, ptr %10) #7
  %53 = load ptr, ptr %2, align 8, !tbaa !19
  %54 = getelementptr inbounds nuw %struct.mi_segment_s, ptr %53, i32 0, i32 8
  %55 = load atomic i64, ptr %54 monotonic, align 8
  store i64 %55, ptr %11, align 8
  %56 = load ptr, ptr %11, align 8, !tbaa !19
  store ptr %56, ptr %10, align 8, !tbaa !19
  %57 = load ptr, ptr %10, align 8, !tbaa !19
  %58 = load i64, ptr %3, align 8, !tbaa !8
  %59 = call i64 @mi_tagged_segment(ptr noundef %57, i64 noundef %58)
  store i64 %59, ptr %8, align 8, !tbaa !8
  call void @llvm.lifetime.end.p0(i64 8, ptr %10) #7
  br label %60

60:                                               ; preds = %52, %47
  br label %61

61:                                               ; preds = %60
  %62 = load ptr, ptr %2, align 8, !tbaa !19
  %63 = icmp ne ptr %62, null
  br i1 %63, label %64, label %77

64:                                               ; preds = %61
  %65 = load i64, ptr %8, align 8, !tbaa !8
  store i64 %65, ptr %12, align 8, !tbaa !8
  %66 = load i64, ptr %3, align 8
  %67 = load i64, ptr %12, align 8
  %68 = cmpxchg weak ptr @abandoned, i64 %66, i64 %67 acq_rel acquire, align 64
  %69 = extractvalue { i64, i1 } %68, 0
  %70 = extractvalue { i64, i1 } %68, 1
  br i1 %70, label %72, label %71

71:                                               ; preds = %64
  store i64 %69, ptr %3, align 8
  br label %72

72:                                               ; preds = %71, %64
  %73 = zext i1 %70 to i8
  store i8 %73, ptr %13, align 1, !tbaa !33
  %74 = load i8, ptr %13, align 1, !tbaa !33, !range !38, !noundef !39
  %75 = trunc i8 %74 to i1
  %76 = xor i1 %75, true
  br label %77

77:                                               ; preds = %72, %61
  %78 = phi i1 [ false, %61 ], [ %76, %72 ]
  br i1 %78, label %47, label %79, !llvm.loop !56

79:                                               ; preds = %77
  store i64 1, ptr %14, align 8, !tbaa !8
  %80 = load i64, ptr %14, align 8
  %81 = atomicrmw sub ptr @abandoned_readers, i64 %80 monotonic, align 64
  store i64 %81, ptr %15, align 8
  %82 = load ptr, ptr %2, align 8, !tbaa !19
  %83 = icmp ne ptr %82, null
  br i1 %83, label %84, label %90

84:                                               ; preds = %79
  %85 = load ptr, ptr %2, align 8, !tbaa !19
  %86 = getelementptr inbounds nuw %struct.mi_segment_s, ptr %85, i32 0, i32 8
  store ptr null, ptr %16, align 8, !tbaa !19
  %87 = load i64, ptr %16, align 8
  store atomic i64 %87, ptr %86 release, align 8
  store i64 1, ptr %17, align 8, !tbaa !8
  %88 = load i64, ptr %17, align 8
  %89 = atomicrmw sub ptr @abandoned_count, i64 %88 monotonic, align 64
  store i64 %89, ptr %18, align 8
  br label %90

90:                                               ; preds = %84, %79
  %91 = load ptr, ptr %2, align 8, !tbaa !19
  store ptr %91, ptr %1, align 8
  store i32 1, ptr %5, align 4
  call void @llvm.lifetime.end.p0(i64 8, ptr %8) #7
  br label %92

92:                                               ; preds = %90, %40
  call void @llvm.lifetime.end.p0(i64 8, ptr %3) #7
  call void @llvm.lifetime.end.p0(i64 8, ptr %2) #7
  %93 = load ptr, ptr %1, align 8
  ret ptr %93
}

; Function Attrs: nounwind uwtable
define hidden void @_mi_abandoned_reclaim_all(ptr noundef %0, ptr noundef %1) #0 {
  %3 = alloca ptr, align 8
  %4 = alloca ptr, align 8
  %5 = alloca ptr, align 8
  store ptr %0, ptr %3, align 8, !tbaa !53
  store ptr %1, ptr %4, align 8, !tbaa !31
  call void @llvm.lifetime.start.p0(i64 8, ptr %5) #7
  br label %6

6:                                                ; preds = %9, %2
  %7 = call ptr @mi_abandoned_pop()
  store ptr %7, ptr %5, align 8, !tbaa !19
  %8 = icmp ne ptr %7, null
  br i1 %8, label %9, label %14

9:                                                ; preds = %6
  %10 = load ptr, ptr %5, align 8, !tbaa !19
  %11 = load ptr, ptr %3, align 8, !tbaa !53
  %12 = load ptr, ptr %4, align 8, !tbaa !31
  %13 = call ptr @mi_segment_reclaim(ptr noundef %10, ptr noundef %11, i64 noundef 0, ptr noundef null, ptr noundef %12)
  br label %6, !llvm.loop !55

14:                                               ; preds = %6
  call void @llvm.lifetime.end.p0(i64 8, ptr %5) #7
  ret void
}