; Function Attrs: nounwind uwtable
define hidden void @_mi_abandoned_reclaim_all(ptr noundef %0, ptr noundef captures(address) %1) local_unnamed_addr #5 {
  br label %3

3:                                                ; preds = %53, %2
  %4 = load atomic i64, ptr @abandoned monotonic, align 64
  %5 = icmp ult i64 %4, 67108864
  br i1 %5, label %6, label %37, !prof !29

6:                                                ; preds = %3
  %7 = load atomic i64, ptr @abandoned_visited monotonic, align 64
  %8 = icmp eq i64 %7, 0
  br i1 %8, label %mi_abandoned_pop.exit.thread, label %9

9:                                                ; preds = %6
  %10 = atomicrmw xchg ptr @abandoned_visited, i64 0 acq_rel, align 64
  %.not43.i.i = icmp eq i64 %10, 0
  br i1 %.not43.i.i, label %mi_abandoned_pop.exit.thread, label %11

11:                                               ; preds = %9
  %12 = load atomic i64, ptr @abandoned monotonic, align 64
  %13 = icmp ult i64 %12, 67108864
  br i1 %13, label %14, label %.critedge.i.i.preheader

14:                                               ; preds = %11
  %15 = load atomic i64, ptr @abandoned_visited_count monotonic, align 64
  %16 = add nuw nsw i64 %12, 1
  %17 = and i64 %16, 67108863
  %18 = or i64 %17, %10
  %19 = cmpxchg ptr @abandoned, i64 %12, i64 %18 acq_rel acquire, align 64
  %20 = extractvalue { i64, i1 } %19, 1
  br i1 %20, label %mi_abandoned_visited_revisit.exit.i, label %.critedge.i.i.preheader

.critedge.i.i.preheader:                          ; preds = %14, %11
  br label %.critedge.i.i

.critedge.i.i:                                    ; preds = %.critedge.i.i.preheader, %.critedge.i.i
  %.038.in.i.i = phi i64 [ %22, %.critedge.i.i ], [ %10, %.critedge.i.i.preheader ]
  %.038.i.i = inttoptr i64 %.038.in.i.i to ptr
  %21 = getelementptr inbounds nuw i8, ptr %.038.i.i, i64 280
  %22 = load atomic i64, ptr %21 monotonic, align 8
  %.not.i.i = icmp eq i64 %22, 0
  br i1 %.not.i.i, label %23, label %.critedge.i.i, !llvm.loop !59

23:                                               ; preds = %.critedge.i.i
  %24 = getelementptr inbounds nuw i8, ptr %.038.i.i, i64 280
  %25 = load atomic i64, ptr @abandoned monotonic, align 64
  br label %26

26:                                               ; preds = %26, %23
  %.039.i.i = phi i64 [ %25, %23 ], [ %34, %26 ]
  %27 = load atomic i64, ptr @abandoned_visited_count monotonic, align 64
  %28 = and i64 %.039.i.i, -67108864
  store atomic i64 %28, ptr %24 release, align 8
  %29 = add i64 %.039.i.i, 1
  %30 = and i64 %29, 67108863
  %31 = or i64 %30, %10
  %32 = cmpxchg weak ptr @abandoned, i64 %.039.i.i, i64 %31 release monotonic, align 64
  %33 = extractvalue { i64, i1 } %32, 1
  %34 = extractvalue { i64, i1 } %32, 0
  br i1 %33, label %mi_abandoned_visited_revisit.exit.i, label %26, !llvm.loop !60

mi_abandoned_visited_revisit.exit.i:              ; preds = %26, %14
  %.sink46.i.i = phi i64 [ %15, %14 ], [ %27, %26 ]
  %35 = atomicrmw add ptr @abandoned_count, i64 %.sink46.i.i monotonic, align 64
  %36 = atomicrmw sub ptr @abandoned_visited_count, i64 %.sink46.i.i monotonic, align 64
  br label %37

37:                                               ; preds = %mi_abandoned_visited_revisit.exit.i, %3
  %38 = atomicrmw add ptr @abandoned_readers, i64 1 monotonic, align 64
  %39 = load atomic i64, ptr @abandoned acquire, align 64
  br label %40

40:                                               ; preds = %43, %37
  %.022.i = phi i64 [ %39, %37 ], [ %52, %43 ]
  %41 = and i64 %.022.i, -67108864
  %.not.i = icmp eq i64 %41, 0
  br i1 %.not.i, label %mi_abandoned_pop.exit.thread5, label %43

mi_abandoned_pop.exit.thread5:                    ; preds = %40
  %42 = atomicrmw sub ptr @abandoned_readers, i64 1 monotonic, align 64
  br label %mi_abandoned_pop.exit.thread

43:                                               ; preds = %40
  %44 = inttoptr i64 %41 to ptr
  %45 = getelementptr inbounds nuw i8, ptr %44, i64 280
  %46 = load atomic i64, ptr %45 monotonic, align 8
  %47 = add i64 %.022.i, 1
  %48 = and i64 %47, 67108863
  %49 = or i64 %46, %48
  %50 = cmpxchg weak ptr @abandoned, i64 %.022.i, i64 %49 acq_rel acquire, align 64
  %51 = extractvalue { i64, i1 } %50, 1
  %52 = extractvalue { i64, i1 } %50, 0
  br i1 %51, label %53, label %40, !llvm.loop !61

53:                                               ; preds = %43
  %54 = getelementptr inbounds nuw i8, ptr %44, i64 280
  %55 = atomicrmw sub ptr @abandoned_readers, i64 1 monotonic, align 64
  store atomic i64 0, ptr %54 release, align 8
  %56 = atomicrmw sub ptr @abandoned_count, i64 1 monotonic, align 64
  %57 = tail call fastcc ptr @mi_segment_reclaim(ptr noundef %44, ptr noundef %0, i64 noundef 0, ptr noundef null, ptr noundef %1)
  br label %3, !llvm.loop !62

mi_abandoned_pop.exit.thread:                     ; preds = %9, %6, %mi_abandoned_pop.exit.thread5
  ret void
}